target datalayout = "e-m:e-p270:32:32-p271:32:32-p272:64:64-i64:64-i128:128-f80:128-n8:16:32:64-S128"
target triple = "x86_64-pc-linux-gnu"

%struct.client = type { i64, i64, ptr, i8, i8, i8, i8, i32, ptr, ptr, ptr, ptr, ptr, i64, i64, i32, ptr, i32, i32, ptr, i64, ptr, ptr, ptr, ptr, ptr, i32, i32, i64, ptr, i64, ptr, i64, i64, i64, i32, ptr, i64, i64, i32, i32, i32, i32, i64, i64, ptr, i64, i64, i64, i64, i64, i64, i64, i64, [41 x i8], i32, ptr, i32, i32, i64, %struct.multiState, %struct.blockingState, i64, ptr, ptr, ptr, ptr, ptr, ptr, ptr, ptr, ptr, ptr, ptr, ptr, ptr, ptr, i64, ptr, i64, i32, ptr, ptr, ptr, i64, %struct.listNode, i64, i64, i32, i64, ptr }
%struct.multiState = type { ptr, i32, i32, i32, i64, i32 }
%struct.blockingState = type { i32, i64, i32, ptr, i32, i32, i64, ptr, ptr, i64 }
%struct.listNode = type { ptr, ptr, ptr }
%struct.zrange_result_handler = type { i32, ptr, ptr, ptr, ptr, i32, i32, ptr, ptr, ptr, ptr }

; Function Attrs: nounwind uwtable
define internal void @zrangeResultFinalizeClient(ptr noundef %0, i64 noundef %1) #0 {
  %3 = alloca ptr, align 8
  %4 = alloca i64, align 8
  store ptr %0, ptr %3, align 8, !tbaa !208
  store i64 %1, ptr %4, align 8, !tbaa !31
  %5 = load ptr, ptr %3, align 8, !tbaa !208
  %6 = getelementptr inbounds nuw %struct.zrange_result_handler, ptr %5, i32 0, i32 4
  %7 = load ptr, ptr %6, align 8, !tbaa !256
  %8 = icmp ne ptr %7, null
  br i1 %8, label %10, label %9

9:                                                ; preds = %2
  br label %33

10:                                               ; preds = %2
  %11 = load ptr, ptr %3, align 8, !tbaa !208
  %12 = getelementptr inbounds nuw %struct.zrange_result_handler, ptr %11, i32 0, i32 5
  %13 = load i32, ptr %12, align 8, !tbaa !229
  %14 = icmp ne i32 %13, 0
  br i1 %14, label %15, label %25

15:                                               ; preds = %10
  %16 = load ptr, ptr %3, align 8, !tbaa !208
  %17 = getelementptr inbounds nuw %struct.zrange_result_handler, ptr %16, i32 0, i32 1
  %18 = load ptr, ptr %17, align 8, !tbaa !210
  %19 = getelementptr inbounds nuw %struct.client, ptr %18, i32 0, i32 7
  %20 = load i32, ptr %19, align 4, !tbaa !205
  %21 = icmp eq i32 %20, 2
  br i1 %21, label %22, label %25

22:                                               ; preds = %15
  %23 = load i64, ptr %4, align 8, !tbaa !31
  %24 = mul i64 %23, 2
  store i64 %24, ptr %4, align 8, !tbaa !31
  br label %25

25:                                               ; preds = %22, %15, %10
  %26 = load ptr, ptr %3, align 8, !tbaa !208
  %27 = getelementptr inbounds nuw %struct.zrange_result_handler, ptr %26, i32 0, i32 1
  %28 = load ptr, ptr %27, align 8, !tbaa !210
  %29 = load ptr, ptr %3, align 8, !tbaa !208
  %30 = getelementptr inbounds nuw %struct.zrange_result_handler, ptr %29, i32 0, i32 4
  %31 = load ptr, ptr %30, align 8, !tbaa !256
  %32 = load i64, ptr %4, align 8, !tbaa !31
  call void @setDeferredArrayLen(ptr noundef %28, ptr noundef %31, i64 noundef %32)
  br label %33

33:                                               ; preds = %25, %9
  ret void
}