; Function Attrs: nounwind uwtable
define internal void @zrangeResultFinalizeClient(ptr noundef readonly captures(none) %0, i64 noundef %1) #0 {
  %3 = getelementptr inbounds nuw i8, ptr %0, i64 32
  %4 = load ptr, ptr %3, align 8, !tbaa !228
  %.not = icmp eq ptr %4, null
  br i1 %.not, label %13, label %5

5:                                                ; preds = %2
  %6 = getelementptr inbounds nuw i8, ptr %0, i64 40
  %7 = load i32, ptr %6, align 8, !tbaa !204
  %.not6 = icmp eq i32 %7, 0
  %.phi.trans.insert = getelementptr inbounds nuw i8, ptr %0, i64 8
  %.pre = load ptr, ptr %.phi.trans.insert, align 8, !tbaa !194
  br i1 %.not6, label %._crit_edge, label %8

8:                                                ; preds = %5
  %9 = getelementptr inbounds nuw i8, ptr %.pre, i64 28
  %10 = load i32, ptr %9, align 4, !tbaa !185
  %11 = icmp eq i32 %10, 2
  %12 = zext i1 %11 to i64
  %spec.select = shl i64 %1, %12
  br label %._crit_edge

._crit_edge:                                      ; preds = %5, %8
  %.0 = phi i64 [ %spec.select, %8 ], [ %1, %5 ]
  tail call void @setDeferredArrayLen(ptr noundef %.pre, ptr noundef nonnull %4, i64 noundef %.0) #18
  br label %13

13:                                               ; preds = %2, %._crit_edge
  ret void
}